; Function Attrs: nounwind uwtable
define void @evhttp_send_reply(ptr noundef initializes((72, 76), (116, 120)) %0, i32 noundef %1, ptr noundef %2, ptr noundef %3) local_unnamed_addr #0 {
  %5 = getelementptr inbounds nuw i8, ptr %0, i64 72
  store i32 1, ptr %5, align 8
  %6 = getelementptr inbounds nuw i8, ptr %0, i64 116
  store i32 %1, ptr %6, align 4
  %7 = getelementptr inbounds nuw i8, ptr %0, i64 120
  %8 = load ptr, ptr %7, align 8
  %.not.i = icmp eq ptr %8, null
  br i1 %.not.i, label %10, label %9

9:                                                ; preds = %4
  tail call void @event_mm_free_(ptr noundef nonnull %8) #18
  br label %10

10:                                               ; preds = %9, %4
  %11 = icmp eq ptr %2, null
  br i1 %11, label %12, label %evhttp_response_phrase_internal.exit.i

12:                                               ; preds = %10
  %13 = srem i32 %1, 100
  %14 = add i32 %1, -600
  %or.cond.i.i = icmp ult i32 %14, -500
  br i1 %or.cond.i.i, label %evhttp_response_phrase_internal.exit.i, label %15

15:                                               ; preds = %12
  %.lhs.trunc.i.i = trunc nuw i32 %1 to i16
  %16 = udiv i16 %.lhs.trunc.i.i, 100
  %.zext.i.i = zext nneg i16 %16 to i64
  %17 = add nuw nsw i64 %.zext.i.i, 4294967295
  %18 = and i64 %17, 4294967295
  %19 = getelementptr inbounds nuw [5 x %struct.response_class], ptr @response_classes, i64 0, i64 %18
  %20 = getelementptr inbounds nuw i8, ptr %19, i64 8
  %21 = load i64, ptr %20, align 8
  %22 = trunc i64 %21 to i32
  %.not.i.i = icmp slt i32 %13, %22
  br i1 %.not.i.i, label %25, label %23

23:                                               ; preds = %15
  %24 = load ptr, ptr %19, align 8
  br label %evhttp_response_phrase_internal.exit.i

25:                                               ; preds = %15
  %26 = getelementptr inbounds nuw i8, ptr %19, i64 16
  %27 = load ptr, ptr %26, align 8
  %28 = zext nneg i32 %13 to i64
  %29 = getelementptr inbounds nuw ptr, ptr %27, i64 %28
  %30 = load ptr, ptr %29, align 8
  br label %evhttp_response_phrase_internal.exit.i

evhttp_response_phrase_internal.exit.i:           ; preds = %25, %23, %12, %10
  %.0.i = phi ptr [ %2, %10 ], [ %24, %23 ], [ %30, %25 ], [ @.str.105, %12 ]
  %31 = tail call ptr @event_mm_strdup_(ptr noundef %.0.i) #18
  store ptr %31, ptr %7, align 8
  %32 = icmp eq ptr %31, null
  br i1 %32, label %33, label %evhttp_response_code_.exit

33:                                               ; preds = %evhttp_response_phrase_internal.exit.i
  tail call void (ptr, ...) @event_warn(ptr noundef nonnull @.str.2, ptr noundef nonnull @__func__.evhttp_response_code_) #18
  br label %evhttp_response_code_.exit

evhttp_response_code_.exit:                       ; preds = %evhttp_response_phrase_internal.exit.i, %33
  %34 = getelementptr inbounds nuw i8, ptr %0, i64 16
  %35 = load ptr, ptr %34, align 8
  %36 = icmp eq ptr %35, null
  br i1 %36, label %37, label %38

37:                                               ; preds = %evhttp_response_code_.exit
  tail call void @evhttp_request_free(ptr noundef nonnull %0)
  br label %evhttp_send.exit

38:                                               ; preds = %evhttp_response_code_.exit
  %39 = getelementptr inbounds nuw i8, ptr %0, i64 144
  %40 = load i8, ptr %39, align 8
  %41 = or i8 %40, 2
  store i8 %41, ptr %39, align 8
  %.not.i4 = icmp eq ptr %3, null
  br i1 %.not.i4, label %46, label %42

42:                                               ; preds = %38
  %43 = getelementptr inbounds nuw i8, ptr %0, i64 152
  %44 = load ptr, ptr %43, align 8
  %45 = tail call i32 @evbuffer_add_buffer(ptr noundef %44, ptr noundef nonnull %3) #18
  br label %46

46:                                               ; preds = %42, %38
  tail call fastcc void @evhttp_make_header(ptr noundef nonnull %35, ptr noundef nonnull %0)
  %47 = load i32, ptr @event_debug_logging_mask_, align 4
  %.not.i.i5 = icmp eq i32 %47, 0
  br i1 %.not.i.i5, label %evhttp_write_buffer.exit.i, label %48

48:                                               ; preds = %46
  tail call void (ptr, ...) @event_debugx_(ptr noundef nonnull @.str.95, ptr noundef nonnull @__func__.evhttp_write_buffer) #18
  br label %evhttp_write_buffer.exit.i

evhttp_write_buffer.exit.i:                       ; preds = %48, %46
  %49 = getelementptr inbounds nuw i8, ptr %35, i64 312
  store ptr @evhttp_send_done, ptr %49, align 8
  %50 = getelementptr inbounds nuw i8, ptr %35, i64 320
  store ptr null, ptr %50, align 8
  %51 = getelementptr inbounds nuw i8, ptr %35, i64 16
  %52 = load ptr, ptr %51, align 8
  tail call void @bufferevent_setcb(ptr noundef %52, ptr noundef null, ptr noundef nonnull @evhttp_write_cb, ptr noundef nonnull @evhttp_error_cb, ptr noundef nonnull %35) #18
  %53 = load ptr, ptr %51, align 8
  %54 = tail call i32 @bufferevent_enable(ptr noundef %53, i16 noundef signext 6) #18
  br label %evhttp_send.exit

evhttp_send.exit:                                 ; preds = %37, %evhttp_write_buffer.exit.i
  ret void
}